; Function Attrs: mustprogress uwtable
define hidden noundef zeroext i1 @_ZN3sls12arith_plugin11repair_downEP3app(ptr noundef nonnull align 8 captures(none) dereferenceable(64) %0, ptr noundef %1) unnamed_addr #3 align 2 personality ptr @__gxx_personality_v0 {
  %3 = getelementptr inbounds nuw i8, ptr %0, i64 32
  %4 = load ptr, ptr %3, align 8, !tbaa !48
  %.not15 = icmp eq ptr %4, null
  br i1 %.not15, label %42, label %5

5:                                                ; preds = %2
  %6 = load ptr, ptr %4, align 8, !tbaa !3
  %7 = getelementptr inbounds nuw i8, ptr %6, i64 88
  %8 = load ptr, ptr %7, align 8
  %9 = invoke noundef zeroext i1 %8(ptr noundef nonnull align 8 dereferenceable(672) %4, ptr noundef %1)
          to label %49 unwind label %10

10:                                               ; preds = %5
  %11 = landingpad { ptr, i32 }
          catch ptr @_ZTI18overflow_exception
  %12 = extractvalue { ptr, i32 } %11, 1
  %13 = tail call i32 @llvm.eh.typeid.for.p0(ptr nonnull @_ZTI18overflow_exception) #11
  %14 = icmp eq i32 %12, %13
  br i1 %14, label %15, label %50

15:                                               ; preds = %10
  %16 = extractvalue { ptr, i32 } %11, 0
  %17 = tail call ptr @__cxa_begin_catch(ptr %16) #11
  %18 = invoke noundef i32 @_Z19get_verbosity_levelv()
          to label %19 unwind label %30

19:                                               ; preds = %15
  %.not = icmp eq i32 %18, 0
  br i1 %.not, label %_ZStlsISt11char_traitsIcEERSt13basic_ostreamIcT_ES5_PKc.exit14, label %20

20:                                               ; preds = %19
  %21 = invoke noundef zeroext i1 @_Z11is_threadedv()
          to label %22 unwind label %30

22:                                               ; preds = %20
  br i1 %21, label %23, label %32

23:                                               ; preds = %22
  invoke void @_Z12verbose_lockv()
          to label %24 unwind label %30

24:                                               ; preds = %23
  %25 = invoke noundef nonnull align 8 dereferenceable(8) ptr @_Z14verbose_streamv()
          to label %26 unwind label %30

26:                                               ; preds = %24
  %27 = invoke noundef nonnull align 8 dereferenceable(8) ptr @_ZSt16__ostream_insertIcSt11char_traitsIcEERSt13basic_ostreamIT_T0_ES6_PKS3_l(ptr noundef nonnull align 8 dereferenceable(8) %25, ptr noundef nonnull @.str, i64 noundef 24)
          to label %_ZStlsISt11char_traitsIcEERSt13basic_ostreamIcT_ES5_PKc.exit unwind label %30

_ZStlsISt11char_traitsIcEERSt13basic_ostreamIcT_ES5_PKc.exit: ; preds = %26
  %28 = invoke noundef nonnull align 8 dereferenceable(8) ptr @_ZSt16__ostream_insertIcSt11char_traitsIcEERSt13basic_ostreamIT_T0_ES6_PKS3_l(ptr noundef nonnull align 8 dereferenceable(8) %25, ptr noundef nonnull @.str.12, i64 noundef 14)
          to label %_ZStlsISt11char_traitsIcEERSt13basic_ostreamIcT_ES5_PKc.exit10 unwind label %30

_ZStlsISt11char_traitsIcEERSt13basic_ostreamIcT_ES5_PKc.exit10: ; preds = %_ZStlsISt11char_traitsIcEERSt13basic_ostreamIcT_ES5_PKc.exit
  %29 = invoke noundef nonnull align 8 dereferenceable(8) ptr @_ZSt16__ostream_insertIcSt11char_traitsIcEERSt13basic_ostreamIT_T0_ES6_PKS3_l(ptr noundef nonnull align 8 dereferenceable(8) %25, ptr noundef nonnull @.str.2, i64 noundef 1)
          to label %_ZStlsISt11char_traitsIcEERSt13basic_ostreamIcT_ES5_PKc.exit11 unwind label %30

_ZStlsISt11char_traitsIcEERSt13basic_ostreamIcT_ES5_PKc.exit11: ; preds = %_ZStlsISt11char_traitsIcEERSt13basic_ostreamIcT_ES5_PKc.exit10
  invoke void @_Z14verbose_unlockv()
          to label %_ZStlsISt11char_traitsIcEERSt13basic_ostreamIcT_ES5_PKc.exit14 unwind label %30

30:                                               ; preds = %39, %_ZStlsISt11char_traitsIcEERSt13basic_ostreamIcT_ES5_PKc.exit13, %_ZStlsISt11char_traitsIcEERSt13basic_ostreamIcT_ES5_PKc.exit12, %34, %_ZStlsISt11char_traitsIcEERSt13basic_ostreamIcT_ES5_PKc.exit10, %_ZStlsISt11char_traitsIcEERSt13basic_ostreamIcT_ES5_PKc.exit, %26, %32, %_ZStlsISt11char_traitsIcEERSt13basic_ostreamIcT_ES5_PKc.exit11, %24, %23, %20, %15
  %31 = landingpad { ptr, i32 }
          cleanup
  invoke void @__cxa_end_catch()
          to label %50 unwind label %51

32:                                               ; preds = %22
  %33 = invoke noundef nonnull align 8 dereferenceable(8) ptr @_Z14verbose_streamv()
          to label %34 unwind label %30

34:                                               ; preds = %32
  %35 = invoke noundef nonnull align 8 dereferenceable(8) ptr @_ZSt16__ostream_insertIcSt11char_traitsIcEERSt13basic_ostreamIT_T0_ES6_PKS3_l(ptr noundef nonnull align 8 dereferenceable(8) %33, ptr noundef nonnull @.str, i64 noundef 24)
          to label %_ZStlsISt11char_traitsIcEERSt13basic_ostreamIcT_ES5_PKc.exit12 unwind label %30

_ZStlsISt11char_traitsIcEERSt13basic_ostreamIcT_ES5_PKc.exit12: ; preds = %34
  %36 = invoke noundef nonnull align 8 dereferenceable(8) ptr @_ZSt16__ostream_insertIcSt11char_traitsIcEERSt13basic_ostreamIT_T0_ES6_PKS3_l(ptr noundef nonnull align 8 dereferenceable(8) %33, ptr noundef nonnull @.str.12, i64 noundef 14)
          to label %_ZStlsISt11char_traitsIcEERSt13basic_ostreamIcT_ES5_PKc.exit13 unwind label %30

_ZStlsISt11char_traitsIcEERSt13basic_ostreamIcT_ES5_PKc.exit13: ; preds = %_ZStlsISt11char_traitsIcEERSt13basic_ostreamIcT_ES5_PKc.exit12
  %37 = invoke noundef nonnull align 8 dereferenceable(8) ptr @_ZSt16__ostream_insertIcSt11char_traitsIcEERSt13basic_ostreamIT_T0_ES6_PKS3_l(ptr noundef nonnull align 8 dereferenceable(8) %33, ptr noundef nonnull @.str.2, i64 noundef 1)
          to label %_ZStlsISt11char_traitsIcEERSt13basic_ostreamIcT_ES5_PKc.exit14 unwind label %30

_ZStlsISt11char_traitsIcEERSt13basic_ostreamIcT_ES5_PKc.exit14: ; preds = %_ZStlsISt11char_traitsIcEERSt13basic_ostreamIcT_ES5_PKc.exit13, %_ZStlsISt11char_traitsIcEERSt13basic_ostreamIcT_ES5_PKc.exit11, %19
  %38 = load ptr, ptr %3, align 8, !tbaa !48
  %.not.i.i = icmp eq ptr %38, null
  br i1 %.not.i.i, label %_ZN3sls12arith_plugin11init_backupEv.exit, label %39

39:                                               ; preds = %_ZStlsISt11char_traitsIcEERSt13basic_ostreamIcT_ES5_PKc.exit14
  %40 = load ptr, ptr %38, align 8, !tbaa !3
  %41 = load ptr, ptr %40, align 8
  tail call void %41(ptr noundef nonnull align 8 dereferenceable(672) %38) #11
  invoke void @_ZN6memory10deallocateEPv(ptr noundef nonnull %38)
          to label %.noexc unwind label %30

.noexc:                                           ; preds = %39
  store ptr null, ptr %3, align 8, !tbaa !48
  br label %_ZN3sls12arith_plugin11init_backupEv.exit

_ZN3sls12arith_plugin11init_backupEv.exit:        ; preds = %.noexc, %_ZStlsISt11char_traitsIcEERSt13basic_ostreamIcT_ES5_PKc.exit14
  tail call void @__cxa_end_catch()
  br label %42

42:                                               ; preds = %_ZN3sls12arith_plugin11init_backupEv.exit, %2
  %43 = getelementptr inbounds nuw i8, ptr %0, i64 40
  %44 = load ptr, ptr %43, align 8, !tbaa !51
  %45 = load ptr, ptr %44, align 8, !tbaa !3
  %46 = getelementptr inbounds nuw i8, ptr %45, i64 88
  %47 = load ptr, ptr %46, align 8
  %48 = tail call noundef zeroext i1 %47(ptr noundef nonnull align 8 dereferenceable(792) %44, ptr noundef %1)
  br label %49

49:                                               ; preds = %5, %42
  %.0 = phi i1 [ %48, %42 ], [ %9, %5 ]
  ret i1 %.0

50:                                               ; preds = %30, %10
  %.merged = phi { ptr, i32 } [ %11, %10 ], [ %31, %30 ]
  resume { ptr, i32 } %.merged

51:                                               ; preds = %30
  %52 = landingpad { ptr, i32 }
          catch ptr null
  %53 = extractvalue { ptr, i32 } %52, 0
  tail call void @__clang_call_terminate(ptr %53) #12
  unreachable
}